; ModuleID = '43/1429.c'
source_filename = "43/1429.c"
target datalayout = "e-m:e-p270:32:32-p271:32:32-p272:64:64-i64:64-f80:128-n8:16:32:64-S128"
target triple = "x86_64-pc-linux-gnu"

@.str = private unnamed_addr constant [3 x i8] c"%d\00", align 1
@.str.1 = private unnamed_addr constant [7 x i8] c"%d %d\0A\00", align 1

; Function Attrs: noinline nounwind uwtable
define dso_local i32 @sushu(i32 %0) #0 {
  %2 = alloca i32, align 4
  %3 = alloca i32, align 4
  %4 = alloca i32, align 4
  store i32 %0, i32* %3, align 4
  store i32 2, i32* %4, align 4
  br label %5

5:                                                ; preds = %16, %1
  %6 = load i32, i32* %4, align 4
  %7 = load i32, i32* %3, align 4
  %8 = icmp slt i32 %6, %7
  br i1 %8, label %9, label %19

9:                                                ; preds = %5
  %10 = load i32, i32* %3, align 4
  %11 = load i32, i32* %4, align 4
  %12 = srem i32 %10, %11
  %13 = icmp eq i32 %12, 0
  br i1 %13, label %14, label %15

14:                                               ; preds = %9
  br label %19

15:                                               ; preds = %9
  br label %16

16:                                               ; preds = %15
  %17 = load i32, i32* %4, align 4
  %18 = add nsw i32 %17, 1
  store i32 %18, i32* %4, align 4
  br label %5

19:                                               ; preds = %14, %5
  %20 = load i32, i32* %4, align 4
  %21 = load i32, i32* %3, align 4
  %22 = icmp eq i32 %20, %21
  br i1 %22, label %23, label %24

23:                                               ; preds = %19
  store i32 1, i32* %2, align 4
  br label %25

24:                                               ; preds = %19
  store i32 0, i32* %2, align 4
  br label %25

25:                                               ; preds = %24, %23
  %26 = load i32, i32* %2, align 4
  ret i32 %26
}

; Function Attrs: noinline nounwind uwtable
define dso_local i32 @main() #0 {
  %1 = alloca i32, align 4
  %2 = alloca i32, align 4
  %3 = alloca i32, align 4
  %4 = alloca i32, align 4
  %5 = alloca i32, align 4
  %6 = alloca i32, align 4
  store i32 0, i32* %1, align 4
  %7 = call i32 (i8*, ...) @__isoc99_scanf(i8* getelementptr inbounds ([3 x i8], [3 x i8]* @.str, i64 0, i64 0), i32* %2)
  store i32 3, i32* %5, align 4
  br label %8

8:                                                ; preds = %33, %0
  %9 = load i32, i32* %5, align 4
  %10 = load i32, i32* %2, align 4
  %11 = load i32, i32* %5, align 4
  %12 = sub nsw i32 %10, %11
  %13 = icmp sle i32 %9, %12
  br i1 %13, label %14, label %36

14:                                               ; preds = %8
  %15 = load i32, i32* %5, align 4
  %16 = call i32 @sushu(i32 %15)
  store i32 %16, i32* %3, align 4
  %17 = load i32, i32* %2, align 4
  %18 = load i32, i32* %5, align 4
  %19 = sub nsw i32 %17, %18
  %20 = call i32 @sushu(i32 %19)
  store i32 %20, i32* %4, align 4
  %21 = load i32, i32* %3, align 4
  %22 = icmp eq i32 %21, 1
  br i1 %22, label %23, label %32

23:                                               ; preds = %14
  %24 = load i32, i32* %4, align 4
  %25 = icmp eq i32 %24, 1
  br i1 %25, label %26, label %32

26:                                               ; preds = %23
  %27 = load i32, i32* %5, align 4
  %28 = load i32, i32* %2, align 4
  %29 = load i32, i32* %5, align 4
  %30 = sub nsw i32 %28, %29
  %31 = call i32 (i8*, ...) @printf(i8* getelementptr inbounds ([7 x i8], [7 x i8]* @.str.1, i64 0, i64 0), i32 %27, i32 %30)
  br label %32

32:                                               ; preds = %26, %23, %14
  br label %33

33:                                               ; preds = %32
  %34 = load i32, i32* %5, align 4
  %35 = add nsw i32 %34, 1
  store i32 %35, i32* %5, align 4
  br label %8

36:                                               ; preds = %8
  ret i32 0
}

declare dso_local i32 @__isoc99_scanf(i8*, ...) #1

declare dso_local i32 @printf(i8*, ...) #1


!llvm.module.flags = !{!0}
!llvm.ident = !{!1}

!0 = !{i32 1, !"wchar_size", i32 4}
!1 = !{!"clang version 10.0.0-4ubuntu1 "}
